SF:/home/andy/dev/sas-reader-2000/src/main.rs
FN:1,_RNvCs6UV52ebJDD6_15sas_reader_20004main
FNDA:0,_RNvCs6UV52ebJDD6_15sas_reader_20004main
FNF:1
FNH:0
DA:1,0
DA:2,0
DA:3,0
BRF:0
BRH:0
LF:3
LH:0
end_of_record
SF:/home/andy/dev/sas-reader-2000/src/sas/alignment.rs
FN:7,_RNvMNtNtCs1Zotm579C3S_15sas_reader_20003sas9alignmentNtB2_9Alignment7from_u8
FN:21,_RNvNtNtNtCs1Zotm579C3S_15sas_reader_20003sas9alignment5testss_25can_make_alignment_struct
FN:29,_RNvNtNtNtCs1Zotm579C3S_15sas_reader_20003sas9alignment5testss_22test_alignment_from_u8
FNDA:6,_RNvMNtNtCs1Zotm579C3S_15sas_reader_20003sas9alignmentNtB2_9Alignment7from_u8
FNDA:1,_RNvNtNtNtCs1Zotm579C3S_15sas_reader_20003sas9alignment5testss_25can_make_alignment_struct
FNDA:1,_RNvNtNtNtCs1Zotm579C3S_15sas_reader_20003sas9alignment5testss_22test_alignment_from_u8
FNF:3
FNH:3
DA:7,6
DA:8,6
DA:9,4
DA:10,1
DA:11,1
DA:13,6
DA:21,1
DA:22,1
DA:23,1
DA:24,1
DA:25,1
DA:26,1
DA:29,1
DA:30,1
DA:31,1
DA:33,1
DA:34,1
DA:36,1
DA:37,1
DA:38,1
BRF:0
BRH:0
LF:20
LH:20
end_of_record
SF:/home/andy/dev/sas-reader-2000/src/sas/compression.rs
FN:11,_RNvMNtNtCs1Zotm579C3S_15sas_reader_20003sas11compressionNtB2_11Compression7from_u8
FN:26,_RNvNtNtNtCs1Zotm579C3S_15sas_reader_20003sas11compression5testss_12test_from_u8
FN:34,_RNvNtNtNtCs1Zotm579C3S_15sas_reader_20003sas11compression5testss_26test_truncated_compression
FN:42,_RNvNtNtNtCs1Zotm579C3S_15sas_reader_20003sas11compression5testss_20test_rle_compression
FN:50,_RNvNtNtNtCs1Zotm579C3S_15sas_reader_20003sas11compression5testss_24test_invalid_compression
FNDA:4,_RNvMNtNtCs1Zotm579C3S_15sas_reader_20003sas11compressionNtB2_11Compression7from_u8
FNDA:1,_RNvNtNtNtCs1Zotm579C3S_15sas_reader_20003sas11compression5testss_12test_from_u8
FNDA:1,_RNvNtNtNtCs1Zotm579C3S_15sas_reader_20003sas11compression5testss_26test_truncated_compression
FNDA:1,_RNvNtNtNtCs1Zotm579C3S_15sas_reader_20003sas11compression5testss_20test_rle_compression
FNDA:1,_RNvNtNtNtCs1Zotm579C3S_15sas_reader_20003sas11compression5testss_24test_invalid_compression
FNF:5
FNH:5
DA:11,4
DA:12,4
DA:13,1
DA:14,1
DA:15,1
DA:16,1
DA:18,4
DA:26,1
DA:27,1
DA:28,1
DA:29,1
DA:30,1
DA:31,1
DA:34,1
DA:35,1
DA:36,1
DA:37,1
DA:38,1
DA:39,1
DA:42,1
DA:43,1
DA:44,1
DA:45,1
DA:46,1
DA:47,1
DA:50,1
DA:51,1
DA:52,1
DA:53,1
DA:54,1
BRF:0
BRH:0
LF:30
LH:30
end_of_record
SF:/home/andy/dev/sas-reader-2000/src/sas/encoding.rs
FN:77,_RNvMNtNtCs1Zotm579C3S_15sas_reader_20003sas8encodingNtB2_8Encoding9from_code
FN:166,_RNvNtNtNtCs1Zotm579C3S_15sas_reader_20003sas8encoding5testss_26can_get_encoding_from_code
FN:172,_RNvNtNtNtCs1Zotm579C3S_15sas_reader_20003sas8encoding5testss_34can_get_encoding_from_invalid_code
FNDA:2,_RNvMNtNtCs1Zotm579C3S_15sas_reader_20003sas8encodingNtB2_8Encoding9from_code
FNDA:1,_RNvNtNtNtCs1Zotm579C3S_15sas_reader_20003sas8encoding5testss_26can_get_encoding_from_code
FNDA:1,_RNvNtNtNtCs1Zotm579C3S_15sas_reader_20003sas8encoding5testss_34can_get_encoding_from_invalid_code
FNF:3
FNH:3
DA:77,2
DA:78,2
DA:79,1
DA:80,0
DA:81,0
DA:82,0
DA:83,0
DA:84,0
DA:85,0
DA:86,0
DA:87,0
DA:88,0
DA:89,0
DA:90,0
DA:91,0
DA:92,0
DA:93,0
DA:94,0
DA:95,0
DA:96,0
DA:97,0
DA:98,0
DA:99,0
DA:100,0
DA:101,0
DA:102,0
DA:103,0
DA:104,0
DA:105,0
DA:106,0
DA:107,0
DA:108,0
DA:109,0
DA:110,0
DA:111,0
DA:112,0
DA:113,0
DA:114,0
DA:115,0
DA:116,0
DA:117,0
DA:118,0
DA:119,0
DA:120,0
DA:121,0
DA:122,0
DA:123,0
DA:124,0
DA:125,0
DA:126,0
DA:127,0
DA:128,0
DA:129,0
DA:130,0
DA:131,0
DA:132,0
DA:133,0
DA:134,0
DA:135,0
DA:136,0
DA:137,0
DA:138,0
DA:139,0
DA:140,0
DA:141,0
DA:142,0
DA:143,0
DA:144,0
DA:145,0
DA:146,0
DA:147,0
DA:148,0
DA:149,0
DA:150,0
DA:151,0
DA:152,0
DA:153,0
DA:154,1
DA:156,1
DA:157,2
DA:166,1
DA:167,1
DA:168,1
DA:169,1
DA:172,1
DA:173,1
DA:174,1
DA:175,1
BRF:0
BRH:0
LF:88
LH:14
end_of_record
SF:/home/andy/dev/sas-reader-2000/src/sas/endianness.rs
FN:23,_RNvNtNtNtCs1Zotm579C3S_15sas_reader_20003sas10endianness5testss_23test_endianness_from_u8
FN:9,_RNvMNtNtCs1Zotm579C3S_15sas_reader_20003sas10endiannessNtB2_10Endianness7from_u8
FNDA:1,_RNvNtNtNtCs1Zotm579C3S_15sas_reader_20003sas10endianness5testss_23test_endianness_from_u8
FNDA:3,_RNvMNtNtCs1Zotm579C3S_15sas_reader_20003sas10endiannessNtB2_10Endianness7from_u8
FNF:2
FNH:2
DA:9,3
DA:10,3
DA:11,1
DA:12,1
DA:13,1
DA:15,3
DA:23,1
DA:24,1
DA:25,1
DA:26,1
DA:27,1
BRF:0
BRH:0
LF:11
LH:11
end_of_record
SF:/home/andy/dev/sas-reader-2000/src/sas/errors.rs
FN:11,_RNvNtNtNtCs1Zotm579C3S_15sas_reader_20003sas6errors5testss_10test_error
FNDA:1,_RNvNtNtNtCs1Zotm579C3S_15sas_reader_20003sas6errors5testss_10test_error
FNF:1
FNH:1
DA:11,1
DA:12,1
DA:13,1
DA:14,1
BRF:0
BRH:0
LF:4
LH:4
end_of_record
SF:/home/andy/dev/sas-reader-2000/src/sas/header.rs
FN:12,_RNvMNtNtCs1Zotm579C3S_15sas_reader_20003sas6headerNtB2_9SasHeader3new
FN:18,_RNvMNtNtCs1Zotm579C3S_15sas_reader_20003sas6headerNtB2_9SasHeader28get_magic_number_from_header
FN:22,_RNvMNtNtCs1Zotm579C3S_15sas_reader_20003sas6headerNtB2_9SasHeader31get_sas_file_string_from_header
FN:26,_RNvMNtNtCs1Zotm579C3S_15sas_reader_20003sas6headerNtB2_9SasHeader31get_sas_file_from_header_as_str
FN:32,_RNvMNtNtCs1Zotm579C3S_15sas_reader_20003sas6headerNtB2_9SasHeader28get_sas_filename_from_header
FN:39,_RNvMNtNtCs1Zotm579C3S_15sas_reader_20003sas6headerNtB2_9SasHeader17validate_sas_file
FN:66,_RNvNtNtNtCs1Zotm579C3S_15sas_reader_20003sas6header5testss_21can_create_sas_header
FN:74,_RNvNtNtNtCs1Zotm579C3S_15sas_reader_20003sas6header5testss_21can_validate_sas_file
FN:82,_RNvNtNtNtCs1Zotm579C3S_15sas_reader_20003sas6header5testss_32can_get_magic_number_from_header
FN:96,_RNvNtNtNtCs1Zotm579C3S_15sas_reader_20003sas6header5testss_28can_get_sas_file_from_header
FN:104,_RNvNtNtNtCs1Zotm579C3S_15sas_reader_20003sas6header5testss_38can_get_sas_file_from_header_as_string
FN:115,_RNvNtNtNtCs1Zotm579C3S_15sas_reader_20003sas6header5testss_32can_get_sas_filename_from_header
FNDA:6,_RNvMNtNtCs1Zotm579C3S_15sas_reader_20003sas6headerNtB2_9SasHeader3new
FNDA:2,_RNvMNtNtCs1Zotm579C3S_15sas_reader_20003sas6headerNtB2_9SasHeader28get_magic_number_from_header
FNDA:3,_RNvMNtNtCs1Zotm579C3S_15sas_reader_20003sas6headerNtB2_9SasHeader31get_sas_file_string_from_header
FNDA:2,_RNvMNtNtCs1Zotm579C3S_15sas_reader_20003sas6headerNtB2_9SasHeader31get_sas_file_from_header_as_str
FNDA:2,_RNvMNtNtCs1Zotm579C3S_15sas_reader_20003sas6headerNtB2_9SasHeader28get_sas_filename_from_header
FNDA:1,_RNvMNtNtCs1Zotm579C3S_15sas_reader_20003sas6headerNtB2_9SasHeader17validate_sas_file
FNDA:1,_RNvNtNtNtCs1Zotm579C3S_15sas_reader_20003sas6header5testss_21can_create_sas_header
FNDA:1,_RNvNtNtNtCs1Zotm579C3S_15sas_reader_20003sas6header5testss_21can_validate_sas_file
FNDA:1,_RNvNtNtNtCs1Zotm579C3S_15sas_reader_20003sas6header5testss_32can_get_magic_number_from_header
FNDA:1,_RNvNtNtNtCs1Zotm579C3S_15sas_reader_20003sas6header5testss_28can_get_sas_file_from_header
FNDA:1,_RNvNtNtNtCs1Zotm579C3S_15sas_reader_20003sas6header5testss_38can_get_sas_file_from_header_as_string
FNDA:1,_RNvNtNtNtCs1Zotm579C3S_15sas_reader_20003sas6header5testss_32can_get_sas_filename_from_header
FNF:12
FNH:12
DA:12,6
DA:13,6
DA:14,6
DA:15,6
DA:16,6
DA:18,2
DA:19,2
DA:20,2
DA:22,3
DA:23,3
DA:24,3
DA:26,2
DA:27,2
DA:28,2
DA:29,2
DA:30,2
DA:32,2
DA:33,2
DA:34,2
DA:35,2
DA:36,2
DA:37,2
DA:39,1
DA:40,1
DA:41,1
DA:42,1
DA:43,1
DA:44,1
DA:45,0
DA:46,1
DA:47,1
DA:48,1
DA:49,0
DA:50,1
DA:51,1
DA:52,1
DA:53,0
DA:54,1
DA:55,1
DA:56,1
DA:57,1
DA:66,1
DA:67,1
DA:68,1
DA:69,1
DA:70,1
DA:71,1
DA:74,1
DA:75,1
DA:76,1
DA:77,1
DA:78,1
DA:79,1
DA:82,1
DA:83,1
DA:84,1
DA:85,1
DA:86,1
DA:87,1
DA:88,1
DA:89,1
DA:90,1
DA:91,1
DA:92,1
DA:93,1
DA:96,1
DA:97,1
DA:98,1
DA:99,1
DA:100,1
DA:101,1
DA:104,1
DA:105,1
DA:106,1
DA:107,1
DA:108,1
DA:109,1
DA:110,1
DA:111,1
DA:112,1
DA:115,1
DA:116,1
DA:117,1
DA:118,1
DA:119,1
DA:120,1
DA:121,1
DA:122,1
DA:123,1
BRF:0
BRH:0
LF:89
LH:86
end_of_record
SF:/home/andy/dev/sas-reader-2000/src/sas/header_binary.rs
FN:11,_RINvMNtNtCs1Zotm579C3S_15sas_reader_20003sas13header_binaryNtB3_12HeaderBinary4readpEB7_
FNDA:0,_RINvMNtNtCs1Zotm579C3S_15sas_reader_20003sas13header_binaryNtB3_12HeaderBinary4readpEB7_
FNF:1
FNH:0
DA:11,0
DA:12,0
DA:13,0
DA:15,0
DA:16,0
DA:17,0
DA:19,0
DA:20,0
DA:21,0
DA:22,0
DA:23,0
BRF:0
BRH:0
LF:11
LH:0
end_of_record
SF:/home/andy/dev/sas-reader-2000/src/sas/metadata.rs
FN:7,_RNvXs3_NtNtCs1Zotm579C3S_15sas_reader_20003sas8metadataNtB5_23SasMetadataBuilderErrorINtNtCs5cYH0lLSdLc_4core7convert4FromNtNtCsaz9ix1H7t6h_5alloc6string6StringE4from
FN:7,_RNvXs4_NtNtCs1Zotm579C3S_15sas_reader_20003sas8metadataNtB5_23SasMetadataBuilderErrorNtNtCs5cYH0lLSdLc_4core3fmt7Display3fmt
FN:26,_RNvNtNtNtCs1Zotm579C3S_15sas_reader_20003sas8metadata5testss_25test_sas_metadata_builder
FN:15,_RNvMNtNtCs1Zotm579C3S_15sas_reader_20003sas8metadataNtB2_11SasMetadata7builder
FN:7,_RNvMs0_NtNtCs1Zotm579C3S_15sas_reader_20003sas8metadataNtB5_18SasMetadataBuilder10endianness
FN:7,_RNvMs0_NtNtCs1Zotm579C3S_15sas_reader_20003sas8metadataNtB5_18SasMetadataBuilder9alignment
FN:7,_RNvMs0_NtNtCs1Zotm579C3S_15sas_reader_20003sas8metadataNtB5_18SasMetadataBuilder11compression
FN:7,_RNvMs0_NtNtCs1Zotm579C3S_15sas_reader_20003sas8metadataNtB5_18SasMetadataBuilder5build
FN:7,_RNvMs0_NtNtCs1Zotm579C3S_15sas_reader_20003sas8metadataNtB5_18SasMetadataBuilder12create_empty
FN:7,_RNvXs1_NtNtCs1Zotm579C3S_15sas_reader_20003sas8metadataNtB5_18SasMetadataBuilderNtNtCs5cYH0lLSdLc_4core7default7Default7default
FN:7,_RNvXs2_NtNtCs1Zotm579C3S_15sas_reader_20003sas8metadataNtB5_23SasMetadataBuilderErrorINtNtCs5cYH0lLSdLc_4core7convert4FromNtNtCs2wv3Nn5t6ot_14derive_builder5error23UninitializedFieldErrorE4from
FNDA:0,_RNvXs3_NtNtCs1Zotm579C3S_15sas_reader_20003sas8metadataNtB5_23SasMetadataBuilderErrorINtNtCs5cYH0lLSdLc_4core7convert4FromNtNtCsaz9ix1H7t6h_5alloc6string6StringE4from
FNDA:0,_RNvXs4_NtNtCs1Zotm579C3S_15sas_reader_20003sas8metadataNtB5_23SasMetadataBuilderErrorNtNtCs5cYH0lLSdLc_4core3fmt7Display3fmt
FNDA:1,_RNvNtNtNtCs1Zotm579C3S_15sas_reader_20003sas8metadata5testss_25test_sas_metadata_builder
FNDA:1,_RNvMNtNtCs1Zotm579C3S_15sas_reader_20003sas8metadataNtB2_11SasMetadata7builder
FNDA:1,_RNvMs0_NtNtCs1Zotm579C3S_15sas_reader_20003sas8metadataNtB5_18SasMetadataBuilder10endianness
FNDA:1,_RNvMs0_NtNtCs1Zotm579C3S_15sas_reader_20003sas8metadataNtB5_18SasMetadataBuilder9alignment
FNDA:1,_RNvMs0_NtNtCs1Zotm579C3S_15sas_reader_20003sas8metadataNtB5_18SasMetadataBuilder11compression
FNDA:1,_RNvMs0_NtNtCs1Zotm579C3S_15sas_reader_20003sas8metadataNtB5_18SasMetadataBuilder5build
FNDA:1,_RNvMs0_NtNtCs1Zotm579C3S_15sas_reader_20003sas8metadataNtB5_18SasMetadataBuilder12create_empty
FNDA:1,_RNvXs1_NtNtCs1Zotm579C3S_15sas_reader_20003sas8metadataNtB5_18SasMetadataBuilderNtNtCs5cYH0lLSdLc_4core7default7Default7default
FNDA:0,_RNvXs2_NtNtCs1Zotm579C3S_15sas_reader_20003sas8metadataNtB5_23SasMetadataBuilderErrorINtNtCs5cYH0lLSdLc_4core7convert4FromNtNtCs2wv3Nn5t6ot_14derive_builder5error23UninitializedFieldErrorE4from
FNF:3
FNH:3
DA:7,1
DA:15,1
DA:16,1
DA:17,1
DA:26,1
DA:27,1
DA:28,1
DA:29,1
DA:30,1
DA:31,1
DA:32,1
DA:33,1
DA:34,1
DA:35,1
DA:36,1
DA:37,1
BRF:0
BRH:0
LF:16
LH:16
end_of_record
SF:/home/andy/dev/sas-reader-2000/src/sas/page_type.rs
FN:28,_RNvNtNtNtCs1Zotm579C3S_15sas_reader_20003sas9page_type5testss_23test_page_type_from_u16
FN:11,_RNvMNtNtCs1Zotm579C3S_15sas_reader_20003sas9page_typeNtB2_8PageType8from_u16
FNDA:1,_RNvNtNtNtCs1Zotm579C3S_15sas_reader_20003sas9page_type5testss_23test_page_type_from_u16
FNDA:5,_RNvMNtNtCs1Zotm579C3S_15sas_reader_20003sas9page_typeNtB2_8PageType8from_u16
FNF:2
FNH:2
DA:11,5
DA:12,5
DA:13,1
DA:14,1
DA:15,1
DA:16,1
DA:17,1
DA:19,5
DA:28,1
DA:29,1
DA:30,1
DA:31,1
DA:32,1
DA:33,1
DA:34,1
BRF:0
BRH:0
LF:15
LH:15
end_of_record
SF:/home/andy/dev/sas-reader-2000/src/sas_reader.rs
FN:5,_RNvNtCs1Zotm579C3S_15sas_reader_200010sas_reader13read_sas_file
FN:18,_RNvMNtCs1Zotm579C3S_15sas_reader_200010sas_readerNtB2_9SasReader3new
FN:22,_RNvMNtCs1Zotm579C3S_15sas_reader_200010sas_readerNtB2_9SasReader17get_file_contents
FN:29,_RNvMNtCs1Zotm579C3S_15sas_reader_200010sas_readerNtB2_9SasReader15validate_format
FN:49,_RNvNtNtCs1Zotm579C3S_15sas_reader_200010sas_reader5testss_22can_read_sas7bdat_file
FN:56,_RNvNtNtCs1Zotm579C3S_15sas_reader_200010sas_reader5testss_21can_create_sas_reader
FN:68,_RNvNtNtCs1Zotm579C3S_15sas_reader_200010sas_reader5testss_21can_get_file_contents
FN:82,_RNvNtNtCs1Zotm579C3S_15sas_reader_200010sas_reader5testss_32can_get_file_contents_with_error
FN:96,_RNvNtNtCs1Zotm579C3S_15sas_reader_200010sas_reader5testss_33can_validate_sas7bdat_file_format
FNDA:1,_RNvNtCs1Zotm579C3S_15sas_reader_200010sas_reader13read_sas_file
FNDA:4,_RNvMNtCs1Zotm579C3S_15sas_reader_200010sas_readerNtB2_9SasReader3new
FNDA:4,_RNvMNtCs1Zotm579C3S_15sas_reader_200010sas_readerNtB2_9SasReader17get_file_contents
FNDA:2,_RNvMNtCs1Zotm579C3S_15sas_reader_200010sas_readerNtB2_9SasReader15validate_format
FNDA:1,_RNvNtNtCs1Zotm579C3S_15sas_reader_200010sas_reader5testss_22can_read_sas7bdat_file
FNDA:1,_RNvNtNtCs1Zotm579C3S_15sas_reader_200010sas_reader5testss_21can_create_sas_reader
FNDA:1,_RNvNtNtCs1Zotm579C3S_15sas_reader_200010sas_reader5testss_21can_get_file_contents
FNDA:1,_RNvNtNtCs1Zotm579C3S_15sas_reader_200010sas_reader5testss_32can_get_file_contents_with_error
FNDA:1,_RNvNtNtCs1Zotm579C3S_15sas_reader_200010sas_reader5testss_33can_validate_sas7bdat_file_format
FNF:9
FNH:9
DA:5,1
DA:6,1
DA:7,1
DA:8,1
DA:18,4
DA:19,4
DA:20,4
DA:22,4
DA:23,4
DA:24,2
DA:25,2
DA:26,2
DA:27,4
DA:29,2
DA:30,2
DA:31,2
DA:32,2
DA:33,2
DA:34,2
DA:35,2
DA:36,2
DA:37,2
DA:38,2
DA:49,1
DA:50,1
DA:51,1
DA:52,1
DA:53,1
DA:56,1
DA:57,1
DA:58,1
DA:59,1
DA:60,1
DA:61,1
DA:62,1
DA:63,1
DA:64,1
DA:65,1
DA:68,1
DA:69,1
DA:70,1
DA:71,1
DA:72,1
DA:73,1
DA:74,1
DA:75,0
DA:78,1
DA:79,1
DA:82,1
DA:83,1
DA:84,1
DA:85,0
DA:86,0
DA:87,0
DA:88,0
DA:89,1
DA:92,1
DA:93,1
DA:96,1
DA:97,1
DA:98,1
DA:99,1
DA:100,0
DA:103,1
DA:104,1
BRF:0
BRH:0
LF:65
LH:59
end_of_record